; Function Attrs: nounwind uwtable
define noundef i64 @regress_setenv(ptr noundef readonly captures(none) %0) local_unnamed_addr #1 {
  %2 = getelementptr inbounds nuw i8, ptr %0, i64 32
  %3 = load i64, ptr %2, align 8
  %4 = inttoptr i64 %3 to ptr
  %5 = tail call ptr @pg_detoast_datum_packed(ptr noundef %4) #18
  %6 = tail call ptr @text_to_cstring(ptr noundef %5) #18
  %7 = getelementptr inbounds nuw i8, ptr %0, i64 48
  %8 = load i64, ptr %7, align 8
  %9 = inttoptr i64 %8 to ptr
  %10 = tail call ptr @pg_detoast_datum_packed(ptr noundef %9) #18
  %11 = tail call ptr @text_to_cstring(ptr noundef %10) #18
  %12 = tail call zeroext i1 @superuser() #18
  br i1 %12, label %16, label %13

13:                                               ; preds = %1
  %14 = tail call zeroext i1 @errstart_cold(i32 noundef 21, ptr noundef null) #19
  tail call void @llvm.assume(i1 %14)
  %15 = tail call i32 (ptr, ...) @errmsg_internal(ptr noundef nonnull @.str.25) #18
  tail call void @errfinish(ptr noundef nonnull @.str.3, i32 noundef 679, ptr noundef nonnull @__func__.regress_setenv) #18
  unreachable

16:                                               ; preds = %1
  %17 = tail call i32 @setenv(ptr noundef %6, ptr noundef %11, i32 noundef 1) #18
  %.not = icmp eq i32 %17, 0
  br i1 %.not, label %21, label %18

18:                                               ; preds = %16
  %19 = tail call zeroext i1 @errstart_cold(i32 noundef 21, ptr noundef null) #19
  tail call void @llvm.assume(i1 %19)
  %20 = tail call i32 (ptr, ...) @errmsg_internal(ptr noundef nonnull @.str.26) #18
  tail call void @errfinish(ptr noundef nonnull @.str.3, i32 noundef 682, ptr noundef nonnull @__func__.regress_setenv) #18
  unreachable

21:                                               ; preds = %16
  ret i64 0
}